target datalayout = "e-m:e-p270:32:32-p271:32:32-p272:64:64-i64:64-i128:128-f80:128-n8:16:32:64-S128"
target triple = "x86_64-pc-linux-gnu"

%struct.UBiDiProps = type { ptr, ptr, ptr, ptr, ptr, %struct.UTrie2, [4 x i8] }
%struct.UTrie2 = type { ptr, ptr, ptr, i32, i32, i16, i16, i32, i32, i32, i32, ptr, i32, i8, i8, i16, ptr }

; Function Attrs: mustprogress nounwind uwtable
define i32 @ubidi_getMaxValue_77(i32 noundef %0) #4 {
  %2 = alloca i32, align 4
  %3 = alloca i32, align 4
  %4 = alloca i32, align 4
  %5 = alloca i32, align 4
  store i32 %0, ptr %3, align 4, !tbaa !36
  call void @llvm.lifetime.start.p0(i64 4, ptr %4) #5
  %6 = load ptr, ptr getelementptr inbounds nuw (%struct.UBiDiProps, ptr @_ZL21ubidi_props_singleton, i32 0, i32 1), align 8, !tbaa !11
  %7 = getelementptr inbounds nuw i32, ptr %6, i64 15
  %8 = load i32, ptr %7, align 4, !tbaa !21
  store i32 %8, ptr %4, align 4, !tbaa !21
  %9 = load i32, ptr %3, align 4, !tbaa !36
  switch i32 %9, label %25 [
    i32 4096, label %10
    i32 4102, label %13
    i32 4103, label %17
    i32 4117, label %21
  ]

10:                                               ; preds = %1
  %11 = load i32, ptr %4, align 4, !tbaa !21
  %12 = and i32 %11, 31
  store i32 %12, ptr %2, align 4
  store i32 1, ptr %5, align 4
  br label %26

13:                                               ; preds = %1
  %14 = load i32, ptr %4, align 4, !tbaa !21
  %15 = and i32 %14, 16711680
  %16 = ashr i32 %15, 16
  store i32 %16, ptr %2, align 4
  store i32 1, ptr %5, align 4
  br label %26

17:                                               ; preds = %1
  %18 = load i32, ptr %4, align 4, !tbaa !21
  %19 = and i32 %18, 224
  %20 = ashr i32 %19, 5
  store i32 %20, ptr %2, align 4
  store i32 1, ptr %5, align 4
  br label %26

21:                                               ; preds = %1
  %22 = load i32, ptr %4, align 4, !tbaa !21
  %23 = and i32 %22, 768
  %24 = ashr i32 %23, 8
  store i32 %24, ptr %2, align 4
  store i32 1, ptr %5, align 4
  br label %26

25:                                               ; preds = %1
  store i32 -1, ptr %2, align 4
  store i32 1, ptr %5, align 4
  br label %26

26:                                               ; preds = %25, %21, %17, %13, %10
  call void @llvm.lifetime.end.p0(i64 4, ptr %4) #5
  %27 = load i32, ptr %2, align 4
  ret i32 %27
}