; Function Attrs: mustprogress nofree norecurse nosync nounwind willreturn memory(none) uwtable
define range(i32 -1, 105) i32 @ubidi_getMaxValue_77(i32 noundef %0) local_unnamed_addr #2 {
  switch i32 %0, label %5 [
    i32 4096, label %6
    i32 4102, label %2
    i32 4103, label %3
    i32 4117, label %4
  ]

2:                                                ; preds = %1
  br label %6

3:                                                ; preds = %1
  br label %6

4:                                                ; preds = %1
  br label %6

5:                                                ; preds = %1
  br label %6

6:                                                ; preds = %1, %5, %4, %3, %2
  %.0 = phi i32 [ -1, %5 ], [ 2, %4 ], [ 5, %3 ], [ 104, %2 ], [ 22, %1 ]
  ret i32 %.0
}